Certificate:
    Data:
        Version: 3 (0x2)
        Serial Number: 268435458 (0x10000002)
        Signature Algorithm: sha512WithRSAEncryption
        Issuer: CN=SSL Lab Fake Root CA
        Validity
            Not Before: Nov 18 12:20:55 2019 GMT
            Not After : Nov 15 12:20:55 2029 GMT
        Subject: O=aaa, CN=localhost
        Subject Public Key Info:
            Public Key Algorithm: rsaEncryption
                RSA Public-Key: (2048 bit)
                Modulus:
                    00:ca:c7:37:b7:cc:d5:36:f1:48:42:8f:8a:59:31:
                    57:b2:81:93:27:b0:07:ef:3d:a4:0e:7e:cf:a2:91:
                    b2:76:ef:f8:cc:77:1a:2a:86:96:b7:cf:b2:1b:f3:
                    54:d1:d6:22:60:f1:bd:71:0c:20:7c:05:6e:d0:c5:
                    82:b6:5b:2b:42:d3:53:bb:a6:a3:fe:70:eb:e9:3f:
                    c6:e4:b5:32:00:5f:75:34:07:6a:05:df:ea:dc:20:
                    42:04:ae:6c:50:fd:0b:d1:e7:d0:c9:e3:8c:31:69:
                    4e:01:a5:62:83:c2:bd:a8:27:ac:57:41:d3:79:97:
                    60:40:27:4e:e7:e0:a7:8f:48:2a:11:17:9a:fd:b4:
                    2a:db:31:5a:73:11:bb:86:c6:3d:34:54:d9:f5:12:
                    f4:26:e6:20:49:4a:d0:4b:d1:74:1b:ad:6c:5c:e4:
                    3b:9c:50:4a:eb:a5:8d:7d:c2:dc:d2:02:fd:75:c2:
                    6d:73:7e:d2:05:26:6e:3e:b7:82:9f:21:9c:b9:ac:
                    39:4d:b7:88:81:df:2d:a3:2f:a6:70:b5:dc:5f:e9:
                    f9:5c:68:03:c6:fe:7e:1f:7d:1e:83:8b:22:82:cf:
                    06:e1:af:c5:69:48:a3:13:ed:0e:f6:d7:65:c0:f6:
                    b9:b7:22:91:6e:7f:24:24:31:75:7b:ec:62:ab:aa:
                    35:d3
                Exponent: 65537 (0x10001)
        X509v3 extensions:
            X509v3 Basic Constraints: 
                CA:FALSE
            X509v3 Subject Key Identifier: 
                AD:C1:5C:FC:06:62:13:29:0E:FC:E7:9E:1F:4F:2A:DF:13:2D:A2:8F
            X509v3 Key Usage: 
                Digital Signature, Non Repudiation, Key Encipherment, Data Encipherment
            X509v3 Subject Alternative Name: 
                DNS:localhost
    Signature Algorithm: sha512WithRSAEncryption
         66:0b:05:b7:f7:69:b4:25:5f:29:ba:4d:f1:95:48:65:51:8a:
         1c:15:0c:86:77:f6:02:0b:db:b0:3c:6a:aa:0f:1a:ae:3f:7f:
         fb:21:ab:b9:2e:a4:50:eb:db:10:a9:b6:ee:b3:c8:d5:c1:aa:
         77:f9:4a:d6:78:ce:f3:b5:8c:11:1c:f4:ca:5d:83:42:81:fc:
         4b:51:d4:46:7b:73:bd:14:23:57:dd:e8:45:51:30:0e:be:a7:
         cb:b4:78:57:9b:2b:ef:e8:5a:3b:49:6f:7a:b4:77:4f:aa:b7:
         7e:98:2a:72:ea:67:14:3f:4a:16:3c:13:ab:f3:31:d5:75:9d:
         ac:6b:0e:f1:db:d3:a4:db:e9:dc:7b:7b:47:4e:30:51:97:f6:
         0f:fe:4a:c2:31:ec:1a:b8:d7:54:57:8f:64:80:05:a7:18:df:
         7c:0e:70:a7:47:d3:13:67:a3:f4:47:b3:12:88:e6:5c:35:78:
         7f:fc:7f:b8:d6:34:01:8a:dd:8a:0e:3f:bf:b7:0a:f5:ad:7d:
         d8:2b:0c:12:40:b6:97:7b:9d:e4:a7:58:e7:4d:aa:b4:5a:25:
         74:2b:97:d0:2e:be:e4:53:60:90:5b:8e:ab:bd:e3:80:6f:10:
         36:5c:b6:2c:38:59:7d:92:8a:38:4d:32:ed:f4:69:a8:6a:b0:
         42:3f:84:12
-----BEGIN CERTIFICATE-----
MIIDDjCCAfagAwIBAgIEEAAAAjANBgkqhkiG9w0BAQ0FADAfMR0wGwYDVQQDExRT
U0wgTGFiIEZha2UgUm9vdCBDQTAeFw0xOTExMTgxMjIwNTVaFw0yOTExMTUxMjIw
NTVaMCIxDDAKBgNVBAoTA2FhYTESMBAGA1UEAxMJbG9jYWxob3N0MIIBIjANBgkq
hkiG9w0BAQEFAAOCAQ8AMIIBCgKCAQEAysc3t8zVNvFIQo+KWTFXsoGTJ7AH7z2k
Dn7PopGydu/4zHcaKoaWt8+yG/NU0dYiYPG9cQwgfAVu0MWCtlsrQtNTu6aj/nDr
6T/G5LUyAF91NAdqBd/q3CBCBK5sUP0L0efQyeOMMWlOAaVig8K9qCesV0HTeZdg
QCdO5+Cnj0gqERea/bQq2zFacxG7hsY9NFTZ9RL0JuYgSUrQS9F0G61sXOQ7nFBK
66WNfcLc0gL9dcJtc37SBSZuPreCnyGcuaw5TbeIgd8toy+mcLXcX+n5XGgDxv5+
H30eg4sigs8G4a/FaUijE+0O9tdlwPa5tyKRbn8kJDF1e+xiq6o10wIDAQABo08w
TTAJBgNVHRMEAjAAMB0GA1UdDgQWBBStwVz8BmITKQ78554fTyrfEy2ijzALBgNV
HQ8EBAMCBPAwFAYDVR0RBA0wC4IJbG9jYWxob3N0MA0GCSqGSIb3DQEBDQUAA4IB
AQBmCwW392m0JV8puk3xlUhlUYocFQyGd/YCC9uwPGqqDxquP3/7Iau5LqRQ69sQ
qbbus8jVwap3+UrWeM7ztYwRHPTKXYNCgfxLUdRGe3O9FCNX3ehFUTAOvqfLtHhX
myvv6Fo7SW96tHdPqrd+mCpy6mcUP0oWPBOr8zHVdZ2saw7x29Ok2+nce3tHTjBR
l/YP/krCMewauNdUV49kgAWnGN98DnCnR9MTZ6P0R7MSiOZcNXh//H+41jQBit2K
Dj+/twr1rX3YKwwSQLaXe53kp1jnTaq0WiV0K5fQLr7kU2CQW46rveOAbxA2XLYs
OFl9koo4TTLt9GmoarBCP4QS
-----END CERTIFICATE-----
