Certificate:
    Data:
        Version: 3 (0x2)
        Serial Number: 268435459 (0x10000003)
        Signature Algorithm: sha512WithRSAEncryption
        Issuer: O=SSL Essentials Lab - Root CA, CN=SSL Essentials Lab - Root CA
        Validity
            Not Before: Nov 18 13:00:45 2019 GMT
            Not After : Nov 15 13:00:45 2029 GMT
        Subject: O=SSL Essentials Lab - Valid Server Certificate, CN=localhost
        Subject Public Key Info:
            Public Key Algorithm: rsaEncryption
                RSA Public-Key: (4096 bit)
                Modulus:
                    00:c4:e7:6e:c4:95:72:90:ac:d7:be:aa:63:82:43:
                    ac:39:69:d9:79:b7:e5:ef:b5:c1:16:b9:bf:0c:cf:
                    fd:70:5e:87:8d:98:7d:d3:3e:df:23:65:8d:16:10:
                    77:a9:16:6d:69:e3:28:36:85:f2:cf:c9:82:59:0c:
                    66:43:e4:79:28:e7:1a:0f:bc:99:7d:d8:53:0e:49:
                    9e:94:50:0b:ac:b6:e3:ab:31:2e:33:de:05:8a:bf:
                    f6:73:bf:c7:bd:b5:98:1b:0c:8f:ac:ab:ea:f6:8f:
                    c1:1b:ef:f1:13:0e:12:29:8f:e5:89:15:41:b0:0b:
                    fc:6b:b2:cb:37:52:64:1d:55:f2:20:18:ad:68:b5:
                    a3:13:8d:d5:1c:12:67:5e:76:a8:05:99:da:f5:6b:
                    47:b5:f3:34:1b:eb:4f:0c:66:1d:0b:40:42:bd:8b:
                    c8:70:7c:53:d2:45:7e:84:28:81:ed:30:54:b6:cf:
                    f0:28:75:c4:07:93:60:e1:a0:06:f7:75:9a:f5:a3:
                    fe:97:a6:36:77:30:a5:1e:02:05:18:c7:54:5e:18:
                    4a:d2:1d:f4:5b:12:69:33:4a:12:13:9d:e6:49:e1:
                    b4:d6:e7:ea:2c:05:19:b9:dc:b9:26:9f:6a:da:53:
                    36:85:79:1c:d0:2f:77:50:a9:98:fc:66:68:f5:cc:
                    81:70:cd:1e:d4:81:23:4c:15:1d:26:93:0a:af:e6:
                    5b:b2:20:78:60:02:47:18:b3:12:fd:ee:df:88:53:
                    bf:28:78:d8:c0:90:fa:fd:b4:84:68:6e:7e:1e:ae:
                    a0:3a:a4:ba:fe:04:1b:80:f3:75:44:db:9c:db:0e:
                    1d:18:2e:40:24:c3:a7:9c:33:e0:43:8c:42:ee:43:
                    d7:bc:24:9b:41:86:c2:cc:1b:4d:b9:37:cd:ab:16:
                    3d:73:b6:ec:23:fb:16:ba:38:bd:17:39:8e:03:f0:
                    86:4c:89:2d:b8:24:0d:d0:10:93:ed:dd:ff:04:15:
                    76:a2:9f:3f:90:bc:8c:a7:01:42:71:65:86:b7:1e:
                    5d:70:17:a1:8a:a9:bf:e9:93:03:5d:40:72:e2:f9:
                    7d:35:69:ab:c6:f6:ef:89:8c:e6:84:40:3f:1f:59:
                    43:bc:8a:c1:0d:bb:2d:1e:c1:af:56:fb:31:be:0c:
                    43:0c:b3:c5:94:9e:56:27:8d:61:7d:67:06:b6:35:
                    8f:c5:2b:ec:41:df:28:38:20:90:44:1c:81:b6:74:
                    23:1b:f3:e1:01:9b:23:4e:ab:ff:45:09:cc:df:cf:
                    7b:4b:30:2f:73:d5:97:fb:d8:e1:8f:db:d9:36:97:
                    d1:ff:9a:b2:cf:68:fb:2f:1b:86:c9:a0:16:8c:98:
                    b0:98:9d
                Exponent: 65537 (0x10001)
        X509v3 extensions:
            X509v3 Basic Constraints: 
                CA:FALSE
            X509v3 Subject Key Identifier: 
                20:99:FC:32:3B:48:3B:0F:7B:43:9C:26:1F:0D:AD:9C:70:FF:02:7B
            X509v3 Key Usage: 
                Digital Signature, Non Repudiation, Key Encipherment, Data Encipherment
            X509v3 Subject Alternative Name: 
                DNS:localhost
    Signature Algorithm: sha512WithRSAEncryption
         5e:32:e4:d2:92:e7:91:bf:e8:07:9d:93:e5:5f:4a:bd:62:cd:
         0e:cf:3f:51:5a:a7:57:93:05:24:97:f8:a5:59:6a:80:68:ec:
         46:46:4b:31:33:2a:85:e5:6c:e2:95:09:e5:73:be:53:21:6e:
         a2:3f:7f:83:95:39:68:63:b6:e8:63:a2:85:e7:2f:28:b2:c0:
         5d:f7:08:34:d4:54:b1:39:be:6d:d5:b3:31:a8:e0:e3:cd:83:
         8f:2e:a0:2a:ad:3e:ec:7e:72:2c:41:87:bc:85:2d:02:d4:51:
         c2:d1:62:2e:3d:55:83:87:02:2b:bd:bb:77:c6:17:fc:6c:78:
         1c:2d:a6:c4:d8:72:8f:9c:f5:8a:39:b2:43:a6:9e:cc:8e:7b:
         73:8e:cc:0b:f3:b2:16:6f:ca:74:52:51:1b:8b:0c:c8:bc:6a:
         f5:1c:7d:05:43:9b:2d:13:83:8e:d5:dc:15:a8:38:c2:d9:d1:
         15:70:90:e1:51:0f:60:28:32:d2:59:8b:73:c2:d7:ee:2a:95:
         9b:e8:46:26:88:c6:35:75:2d:4b:ae:6f:3d:de:95:2f:84:bd:
         f1:d8:59:13:9b:c8:e3:7d:9e:25:4b:69:40:44:2d:ae:31:20:
         ad:bd:70:98:c2:7d:9b:fb:7e:87:69:73:ac:82:99:95:5a:0f:
         5c:5a:da:fd
-----BEGIN CERTIFICATE-----
MIIEZzCCA0+gAwIBAgIEEAAAAzANBgkqhkiG9w0BAQ0FADBOMSUwIwYDVQQKExxT
U0wgRXNzZW50aWFscyBMYWIgLSBSb290IENBMSUwIwYDVQQDExxTU0wgRXNzZW50
aWFscyBMYWIgLSBSb290IENBMB4XDTE5MTExODEzMDA0NVoXDTI5MTExNTEzMDA0
NVowTDE2MDQGA1UEChMtU1NMIEVzc2VudGlhbHMgTGFiIC0gVmFsaWQgU2VydmVy
IENlcnRpZmljYXRlMRIwEAYDVQQDEwlsb2NhbGhvc3QwggIiMA0GCSqGSIb3DQEB
AQUAA4ICDwAwggIKAoICAQDE527ElXKQrNe+qmOCQ6w5adl5t+XvtcEWub8Mz/1w
XoeNmH3TPt8jZY0WEHepFm1p4yg2hfLPyYJZDGZD5Hko5xoPvJl92FMOSZ6UUAus
tuOrMS4z3gWKv/Zzv8e9tZgbDI+sq+r2j8Eb7/ETDhIpj+WJFUGwC/xrsss3UmQd
VfIgGK1otaMTjdUcEmdedqgFmdr1a0e18zQb608MZh0LQEK9i8hwfFPSRX6EKIHt
MFS2z/AodcQHk2DhoAb3dZr1o/6XpjZ3MKUeAgUYx1ReGErSHfRbEmkzShITneZJ
4bTW5+osBRm53Lkmn2raUzaFeRzQL3dQqZj8Zmj1zIFwzR7UgSNMFR0mkwqv5luy
IHhgAkcYsxL97t+IU78oeNjAkPr9tIRobn4erqA6pLr+BBuA83VE25zbDh0YLkAk
w6ecM+BDjELuQ9e8JJtBhsLMG025N82rFj1ztuwj+xa6OL0XOY4D8IZMiS24JA3Q
EJPt3f8EFXainz+QvIynAUJxZYa3Hl1wF6GKqb/pkwNdQHLi+X01aavG9u+JjOaE
QD8fWUO8isENuy0ewa9W+zG+DEMMs8WUnlYnjWF9Zwa2NY/FK+xB3yg4IJBEHIG2
dCMb8+EBmyNOq/9FCczfz3tLMC9z1Zf72OGP29k2l9H/mrLPaPsvG4bJoBaMmLCY
nQIDAQABo08wTTAJBgNVHRMEAjAAMB0GA1UdDgQWBBQgmfwyO0g7D3tDnCYfDa2c
cP8CezALBgNVHQ8EBAMCBPAwFAYDVR0RBA0wC4IJbG9jYWxob3N0MA0GCSqGSIb3
DQEBDQUAA4IBAQBeMuTSkueRv+gHnZPlX0q9Ys0Ozz9RWqdXkwUkl/ilWWqAaOxG
RksxMyqF5WzilQnlc75TIW6iP3+DlTloY7boY6KF5y8ossBd9wg01FSxOb5t1bMx
qODjzYOPLqAqrT7sfnIsQYe8hS0C1FHC0WIuPVWDhwIrvbt3xhf8bHgcLabE2HKP
nPWKObJDpp7MjntzjswL87IWb8p0UlEbiwzIvGr1HH0FQ5stE4OO1dwVqDjC2dEV
cJDhUQ9gKDLSWYtzwtfuKpWb6EYmiMY1dS1Lrm893pUvhL3x2FkTm8jjfZ4lS2lA
RC2uMSCtvXCYwn2b+36HaXOsgpmVWg9cWtr9
-----END CERTIFICATE-----
